; Function Attrs: nounwind uwtable
define dso_local void @blockClientShutdown(ptr noundef %0) local_unnamed_addr #0 {
  %2 = getelementptr inbounds nuw i8, ptr %0, i64 8
  %3 = load i64, ptr %2, align 8, !tbaa !34
  %.fr16.i = freeze i64 %3
  %4 = and i64 %.fr16.i, 2
  %5 = icmp eq i64 %4, 0
  br i1 %5, label %6, label %switch.early.test.i

switch.early.test.i:                              ; preds = %1
  tail call void @_serverAssert(ptr noundef nonnull @.str, ptr noundef nonnull @.str.1, i32 noundef 72) #5
  tail call void @abort() #6
  unreachable

6:                                                ; preds = %1
  %7 = or i64 %.fr16.i, 16
  store i64 %7, ptr %2, align 8, !tbaa !34
  %8 = getelementptr inbounds nuw i8, ptr %0, i64 480
  store i32 8, ptr %8, align 8, !tbaa !5
  %9 = and i64 %.fr16.i, 134217728
  %.not.i = icmp eq i64 %9, 0
  br i1 %.not.i, label %10, label %blockClient.exit

10:                                               ; preds = %6
  %11 = load i32, ptr getelementptr inbounds nuw (i8, ptr @server, i64 7588), align 4, !tbaa !35
  %12 = add i32 %11, 1
  store i32 %12, ptr getelementptr inbounds nuw (i8, ptr @server, i64 7588), align 4, !tbaa !35
  br label %blockClient.exit

blockClient.exit:                                 ; preds = %6, %10
  %13 = load i32, ptr getelementptr inbounds nuw (i8, ptr @server, i64 7624), align 8, !tbaa !56
  %14 = add i32 %13, 1
  store i32 %14, ptr getelementptr inbounds nuw (i8, ptr @server, i64 7624), align 8, !tbaa !56
  tail call void @addClientToTimeoutTable(ptr noundef nonnull %0) #5
  ret void
}